; Function Attrs: mustprogress uwtable
define void @_Z16tMPI_Wait_singleP11tmpi_threadP9tmpi_req_(ptr noundef %0, ptr noundef captures(none) %1) local_unnamed_addr #0 {
  %3 = getelementptr inbounds nuw i8, ptr %1, i64 8
  %4 = getelementptr inbounds nuw i8, ptr %1, i64 36
  %5 = getelementptr inbounds nuw i8, ptr %1, i64 16
  %6 = getelementptr inbounds nuw i8, ptr %1, i64 24
  %7 = getelementptr inbounds nuw i8, ptr %1, i64 32
  %8 = getelementptr inbounds nuw i8, ptr %1, i64 40
  %9 = getelementptr inbounds nuw i8, ptr %0, i64 208
  br label %10

10:                                               ; preds = %_Z16tMPI_Test_singleP11tmpi_threadP9tmpi_req_.exit.thread, %2
  %11 = load ptr, ptr %3, align 8, !tbaa !45
  %.not.i = icmp ne ptr %11, null
  %.pre18.i = load i32, ptr %1, align 8, !tbaa !46
  %.not14.i = icmp eq i32 %.pre18.i, 0
  %or.cond.i = select i1 %.not.i, i1 %.not14.i, i1 false
  br i1 %or.cond.i, label %12, label %_Z16tMPI_Test_singleP11tmpi_threadP9tmpi_req_.exit

12:                                               ; preds = %10
  %13 = getelementptr inbounds nuw i8, ptr %11, i64 60
  %14 = load i32, ptr %13, align 4, !tbaa !73
  %15 = icmp sgt i32 %14, 2
  br i1 %15, label %16, label %_Z16tMPI_Test_singleP11tmpi_threadP9tmpi_req_.exit.thread

16:                                               ; preds = %12
  store i32 1, ptr %1, align 8, !tbaa !46
  %17 = getelementptr inbounds nuw i8, ptr %11, i64 124
  %18 = load i32, ptr %17, align 4, !tbaa !74
  %19 = getelementptr inbounds nuw i8, ptr %11, i64 16
  %20 = load ptr, ptr %19, align 8, !tbaa !47
  store ptr %20, ptr %5, align 8, !tbaa !48
  %21 = getelementptr inbounds nuw i8, ptr %11, i64 8
  %22 = load ptr, ptr %21, align 8, !tbaa !49
  store ptr %22, ptr %6, align 8, !tbaa !50
  %23 = load i32, ptr %11, align 8, !tbaa !62
  store i32 %23, ptr %7, align 8, !tbaa !51
  store i32 %18, ptr %4, align 4, !tbaa !55
  %24 = getelementptr inbounds nuw i8, ptr %11, i64 144
  %25 = load i32, ptr %24, align 8, !tbaa !72
  %.not.i.i = icmp eq i32 %25, 0
  br i1 %.not.i.i, label %26, label %_Z16tMPI_Test_singleP11tmpi_threadP9tmpi_req_.exit.thread4

26:                                               ; preds = %16
  %27 = icmp eq i32 %14, 3
  br i1 %27, label %_ZL12tMPI_Set_reqP8envelopeP9tmpi_req_.exit.thread17.i, label %_ZL12tMPI_Set_reqP8envelopeP9tmpi_req_.exit.thread.i

_ZL12tMPI_Set_reqP8envelopeP9tmpi_req_.exit.thread17.i: ; preds = %26
  %28 = getelementptr inbounds nuw i8, ptr %11, i64 40
  %29 = load i64, ptr %28, align 8, !tbaa !70
  br label %_ZL12tMPI_Set_reqP8envelopeP9tmpi_req_.exit.thread.i

_Z16tMPI_Test_singleP11tmpi_threadP9tmpi_req_.exit.thread4: ; preds = %16
  %30 = getelementptr inbounds nuw i8, ptr %11, i64 40
  %31 = load i64, ptr %30, align 8, !tbaa !70
  store i64 %31, ptr %8, align 8, !tbaa !57
  %32 = getelementptr inbounds nuw i8, ptr %11, i64 176
  %33 = load ptr, ptr %32, align 8, !tbaa !27
  %34 = load ptr, ptr %33, align 8, !tbaa !32
  %35 = getelementptr inbounds nuw i8, ptr %11, i64 136
  store ptr %34, ptr %35, align 8, !tbaa !10
  store ptr %11, ptr %33, align 8, !tbaa !32
  br label %.loopexit

_ZL12tMPI_Set_reqP8envelopeP9tmpi_req_.exit.thread.i: ; preds = %_ZL12tMPI_Set_reqP8envelopeP9tmpi_req_.exit.thread17.i, %26
  %.sink.i = phi i64 [ %29, %_ZL12tMPI_Set_reqP8envelopeP9tmpi_req_.exit.thread17.i ], [ 0, %26 ]
  store i64 %.sink.i, ptr %8, align 8, !tbaa !57
  %36 = getelementptr inbounds nuw i8, ptr %11, i64 168
  %37 = getelementptr inbounds nuw i8, ptr %11, i64 128
  store ptr null, ptr %37, align 8, !tbaa !26
  tail call void @llvm.memset.p0.i64(ptr noundef nonnull align 8 dereferenceable(16) %36, i8 0, i64 16, i1 false)
  %38 = load ptr, ptr %9, align 8, !tbaa !9
  %39 = getelementptr inbounds nuw i8, ptr %11, i64 136
  store ptr %38, ptr %39, align 8, !tbaa !10
  store ptr %11, ptr %9, align 8, !tbaa !9
  %.pre.i = load i32, ptr %1, align 8, !tbaa !46
  br label %_Z16tMPI_Test_singleP11tmpi_threadP9tmpi_req_.exit

_Z16tMPI_Test_singleP11tmpi_threadP9tmpi_req_.exit: ; preds = %10, %_ZL12tMPI_Set_reqP8envelopeP9tmpi_req_.exit.thread.i
  %40 = phi i32 [ %.pre.i, %_ZL12tMPI_Set_reqP8envelopeP9tmpi_req_.exit.thread.i ], [ %.pre18.i, %10 ]
  %.not = icmp eq i32 %40, 0
  br i1 %.not, label %_Z16tMPI_Test_singleP11tmpi_threadP9tmpi_req_.exit.thread, label %.loopexit

_Z16tMPI_Test_singleP11tmpi_threadP9tmpi_req_.exit.thread: ; preds = %12, %_Z16tMPI_Test_singleP11tmpi_threadP9tmpi_req_.exit
  tail call void @_Z26tMPI_Wait_process_incomingP11tmpi_thread(ptr noundef %0)
  br label %10, !llvm.loop !93

.loopexit:                                        ; preds = %_Z16tMPI_Test_singleP11tmpi_threadP9tmpi_req_.exit, %_Z16tMPI_Test_singleP11tmpi_threadP9tmpi_req_.exit.thread4
  ret void
}